target datalayout = "e-m:e-p270:32:32-p271:32:32-p272:64:64-i64:64-i128:128-f80:128-n8:16:32:64-S128"
target triple = "x86_64-pc-linux-gnu"

%"class.llvm::StringRef" = type { ptr, i64 }
%"class.std::__cxx11::basic_string" = type { %"struct.std::__cxx11::basic_string<char>::_Alloc_hider", i64, %union.anon.158 }
%"struct.std::__cxx11::basic_string<char>::_Alloc_hider" = type { ptr }
%union.anon.158 = type { i64, [8 x i8] }
%"class.llvm::DiagnosticLocation" = type { ptr, i32, i32 }
%"struct.(anonymous namespace)::Cycles" = type { ptr, i32 }
%"struct.llvm::DiagnosticInfoOptimizationBase::Argument" = type { %"class.std::__cxx11::basic_string", %"class.std::__cxx11::basic_string", %"class.llvm::DiagnosticLocation" }

@.str.29 = private unnamed_addr constant [7 x i8] c" cycle\00", align 1
@.str.30 = private unnamed_addr constant [8 x i8] c" cycles\00", align 1

; Function Attrs: mustprogress nounwind uwtable
define linkonce_odr hidden void @_ZN4llvm30DiagnosticInfoOptimizationBase8ArgumentC2ERKS1_(ptr noundef nonnull align 8 dereferenceable(80) %0, ptr noundef nonnull align 8 dereferenceable(80) %1) unnamed_addr #1 comdat align 2 {
  %3 = alloca ptr, align 8
  %4 = alloca ptr, align 8
  store ptr %0, ptr %3, align 8
  store ptr %1, ptr %4, align 8
  %5 = load ptr, ptr %3, align 8
  %6 = getelementptr inbounds nuw %"struct.llvm::DiagnosticInfoOptimizationBase::Argument", ptr %5, i32 0, i32 0
  %7 = load ptr, ptr %4, align 8
  %8 = getelementptr inbounds nuw %"struct.llvm::DiagnosticInfoOptimizationBase::Argument", ptr %7, i32 0, i32 0
  call void @_ZNSt7__cxx1112basic_stringIcSt11char_traitsIcESaIcEEC1ERKS4_(ptr noundef nonnull align 8 dereferenceable(32) %6, ptr noundef nonnull align 8 dereferenceable(32) %8)
  %9 = getelementptr inbounds nuw %"struct.llvm::DiagnosticInfoOptimizationBase::Argument", ptr %5, i32 0, i32 1
  %10 = load ptr, ptr %4, align 8
  %11 = getelementptr inbounds nuw %"struct.llvm::DiagnosticInfoOptimizationBase::Argument", ptr %10, i32 0, i32 1
  call void @_ZNSt7__cxx1112basic_stringIcSt11char_traitsIcESaIcEEC1ERKS4_(ptr noundef nonnull align 8 dereferenceable(32) %9, ptr noundef nonnull align 8 dereferenceable(32) %11)
  %12 = getelementptr inbounds nuw %"struct.llvm::DiagnosticInfoOptimizationBase::Argument", ptr %5, i32 0, i32 2
  %13 = load ptr, ptr %4, align 8
  %14 = getelementptr inbounds nuw %"struct.llvm::DiagnosticInfoOptimizationBase::Argument", ptr %13, i32 0, i32 2
  call void @llvm.memcpy.p0.p0.i64(ptr align 8 %12, ptr align 8 %14, i64 16, i1 false)
  ret void
}

; Function Attrs: mustprogress nounwind uwtable
define linkonce_odr hidden noundef i64 @_ZNSt11char_traitsIcE6lengthEPKc(ptr noundef %0) #1 comdat align 2 {
  %2 = alloca ptr, align 8
  store ptr %0, ptr %2, align 8
  %3 = load ptr, ptr %2, align 8
  %4 = call i64 @strlen(ptr noundef %3) #2
  ret i64 %4
}

; Function Attrs: mustprogress nounwind uwtable
define linkonce_odr hidden void @_ZN4llvm30DiagnosticInfoOptimizationBase8ArgumentD2Ev(ptr noundef nonnull align 8 dereferenceable(80) %0) unnamed_addr #1 comdat align 2 {
  %2 = alloca ptr, align 8
  store ptr %0, ptr %2, align 8
  %3 = load ptr, ptr %2, align 8
  %4 = getelementptr inbounds nuw %"struct.llvm::DiagnosticInfoOptimizationBase::Argument", ptr %3, i32 0, i32 1
  call void @_ZNSt7__cxx1112basic_stringIcSt11char_traitsIcESaIcEED1Ev(ptr noundef nonnull align 8 dereferenceable(32) %4) #2
  %5 = getelementptr inbounds nuw %"struct.llvm::DiagnosticInfoOptimizationBase::Argument", ptr %3, i32 0, i32 0
  call void @_ZNSt7__cxx1112basic_stringIcSt11char_traitsIcESaIcEED1Ev(ptr noundef nonnull align 8 dereferenceable(32) %5) #2
  ret void
}

; Function Attrs: mustprogress nounwind uwtable
define linkonce_odr noundef nonnull align 8 dereferenceable(432) ptr @_ZN4llvmlsINS_31MachineOptimizationRemarkMissedEEERT_S3_NSt9enable_ifIXsr3std10is_base_ofINS_30DiagnosticInfoOptimizationBaseES2_EE5valueENS_9StringRefEE4typeE(ptr noundef nonnull align 8 dereferenceable(432) %0, ptr %1, i64 %2) #1 comdat {
  %4 = alloca %"class.llvm::StringRef", align 8
  %5 = alloca ptr, align 8
  %6 = alloca %"class.llvm::StringRef", align 8
  %7 = getelementptr inbounds nuw { ptr, i64 }, ptr %4, i32 0, i32 0
  store ptr %1, ptr %7, align 8
  %8 = getelementptr inbounds nuw { ptr, i64 }, ptr %4, i32 0, i32 1
  store i64 %2, ptr %8, align 8
  store ptr %0, ptr %5, align 8
  %9 = load ptr, ptr %5, align 8
  call void @llvm.memcpy.p0.p0.i64(ptr align 8 %6, ptr align 8 %4, i64 16, i1 false)
  %10 = getelementptr inbounds nuw { ptr, i64 }, ptr %6, i32 0, i32 0
  %11 = load ptr, ptr %10, align 8
  %12 = getelementptr inbounds nuw { ptr, i64 }, ptr %6, i32 0, i32 1
  %13 = load i64, ptr %12, align 8
  call void @_ZN4llvm30DiagnosticInfoOptimizationBase6insertENS_9StringRefE(ptr noundef nonnull align 8 dereferenceable(424) %9, ptr %11, i64 %13)
  %14 = load ptr, ptr %5, align 8
  ret ptr %14
}

; Function Attrs: mustprogress nounwind uwtable
define linkonce_odr noundef nonnull align 8 dereferenceable(432) ptr @_ZN4llvmlsINS_31MachineOptimizationRemarkMissedEEERT_S3_NSt9enable_ifIXsr3std10is_base_ofINS_30DiagnosticInfoOptimizationBaseES2_EE5valueENS5_8ArgumentEE4typeE(ptr noundef nonnull align 8 dereferenceable(432) %0, ptr noundef %1) #1 comdat {
  %3 = alloca ptr, align 8
  %4 = alloca ptr, align 8
  %5 = alloca %"struct.llvm::DiagnosticInfoOptimizationBase::Argument", align 8
  store ptr %0, ptr %3, align 8
  store ptr %1, ptr %4, align 8
  %6 = load ptr, ptr %3, align 8
  call void @_ZN4llvm30DiagnosticInfoOptimizationBase8ArgumentC2ERKS1_(ptr noundef nonnull align 8 dereferenceable(80) %5, ptr noundef nonnull align 8 dereferenceable(80) %1)
  call void @_ZN4llvm30DiagnosticInfoOptimizationBase6insertENS0_8ArgumentE(ptr noundef nonnull align 8 dereferenceable(424) %6, ptr noundef %5)
  call void @_ZN4llvm30DiagnosticInfoOptimizationBase8ArgumentD2Ev(ptr noundef nonnull align 8 dereferenceable(80) %5) #2
  %7 = load ptr, ptr %3, align 8
  ret ptr %7
}

; Function Attrs: mustprogress nounwind uwtable
define linkonce_odr hidden void @_ZN4llvm9StringRefC2EPKc(ptr noundef nonnull align 8 dereferenceable(16) %0, ptr noundef %1) unnamed_addr #1 comdat align 2 {
  %3 = alloca ptr, align 8
  %4 = alloca ptr, align 8
  store ptr %0, ptr %3, align 8
  store ptr %1, ptr %4, align 8
  %5 = load ptr, ptr %3, align 8
  %6 = getelementptr inbounds nuw %"class.llvm::StringRef", ptr %5, i32 0, i32 0
  %7 = load ptr, ptr %4, align 8
  store ptr %7, ptr %6, align 8
  %8 = getelementptr inbounds nuw %"class.llvm::StringRef", ptr %5, i32 0, i32 1
  %9 = load ptr, ptr %4, align 8
  %10 = icmp ne ptr %9, null
  br i1 %10, label %11, label %14

11:                                               ; preds = %2
  %12 = load ptr, ptr %4, align 8
  %13 = call noundef i64 @_ZNSt11char_traitsIcE6lengthEPKc(ptr noundef %12)
  br label %15

14:                                               ; preds = %2
  br label %15

15:                                               ; preds = %14, %11
  %16 = phi i64 [ %13, %11 ], [ 0, %14 ]
  store i64 %16, ptr %8, align 8
  ret void
}

; Function Attrs: mustprogress nounwind uwtable
define internal noundef nonnull align 8 dereferenceable(432) ptr @_ZN12_GLOBAL__N_1lsIN4llvm31MachineOptimizationRemarkMissedEEERT_S4_NS_6CyclesE(ptr noundef nonnull align 8 dereferenceable(432) %0, ptr %1, i32 %2) #1 {
  %4 = alloca %"struct.(anonymous namespace)::Cycles", align 8
  %5 = alloca ptr, align 8
  %6 = alloca %"struct.llvm::DiagnosticInfoOptimizationBase::Argument", align 8
  %7 = alloca %"class.llvm::StringRef", align 8
  %8 = alloca %"class.llvm::StringRef", align 8
  %9 = getelementptr inbounds nuw { ptr, i32 }, ptr %4, i32 0, i32 0
  store ptr %1, ptr %9, align 8
  %10 = getelementptr inbounds nuw { ptr, i32 }, ptr %4, i32 0, i32 1
  store i32 %2, ptr %10, align 8
  store ptr %0, ptr %5, align 8
  %11 = load ptr, ptr %5, align 8
  %12 = getelementptr inbounds nuw %"struct.(anonymous namespace)::Cycles", ptr %4, i32 0, i32 0
  %13 = load ptr, ptr %12, align 8
  call void @_ZN4llvm9StringRefC2EPKc(ptr noundef nonnull align 8 dereferenceable(16) %7, ptr noundef %13)
  %14 = getelementptr inbounds nuw %"struct.(anonymous namespace)::Cycles", ptr %4, i32 0, i32 1
  %15 = load i32, ptr %14, align 8
  %16 = getelementptr inbounds nuw { ptr, i64 }, ptr %7, i32 0, i32 0
  %17 = load ptr, ptr %16, align 8
  %18 = getelementptr inbounds nuw { ptr, i64 }, ptr %7, i32 0, i32 1
  %19 = load i64, ptr %18, align 8
  call void @_ZN4llvm30DiagnosticInfoOptimizationBase8ArgumentC1ENS_9StringRefEj(ptr noundef nonnull align 8 dereferenceable(80) %6, ptr %17, i64 %19, i32 noundef %15)
  %20 = call noundef nonnull align 8 dereferenceable(432) ptr @_ZN4llvmlsINS_31MachineOptimizationRemarkMissedEEERT_S3_NSt9enable_ifIXsr3std10is_base_ofINS_30DiagnosticInfoOptimizationBaseES2_EE5valueENS5_8ArgumentEE4typeE(ptr noundef nonnull align 8 dereferenceable(432) %11, ptr noundef %6)
  %21 = getelementptr inbounds nuw %"struct.(anonymous namespace)::Cycles", ptr %4, i32 0, i32 1
  %22 = load i32, ptr %21, align 8
  %23 = icmp eq i32 %22, 1
  %24 = select i1 %23, ptr @.str.29, ptr @.str.30
  call void @_ZN4llvm9StringRefC2EPKc(ptr noundef nonnull align 8 dereferenceable(16) %8, ptr noundef %24)
  %25 = getelementptr inbounds nuw { ptr, i64 }, ptr %8, i32 0, i32 0
  %26 = load ptr, ptr %25, align 8
  %27 = getelementptr inbounds nuw { ptr, i64 }, ptr %8, i32 0, i32 1
  %28 = load i64, ptr %27, align 8
  %29 = call noundef nonnull align 8 dereferenceable(432) ptr @_ZN4llvmlsINS_31MachineOptimizationRemarkMissedEEERT_S3_NSt9enable_ifIXsr3std10is_base_ofINS_30DiagnosticInfoOptimizationBaseES2_EE5valueENS_9StringRefEE4typeE(ptr noundef nonnull align 8 dereferenceable(432) %20, ptr %26, i64 %28)
  call void @_ZN4llvm30DiagnosticInfoOptimizationBase8ArgumentD2Ev(ptr noundef nonnull align 8 dereferenceable(80) %6) #2
  ret ptr %29
}