; Function Attrs: mustprogress nounwind uwtable
define internal fastcc noundef nonnull align 8 dereferenceable(432) ptr @_ZN12_GLOBAL__N_1lsIN4llvm31MachineOptimizationRemarkMissedEEERT_S4_NS_6CyclesE(ptr noundef nonnull returned align 8 dereferenceable(432) %0, ptr %1, i32 %2) unnamed_addr #0 {
  %4 = alloca %"struct.llvm::DiagnosticInfoOptimizationBase::Argument", align 8
  %5 = alloca %"struct.llvm::DiagnosticInfoOptimizationBase::Argument", align 8
  %.not.i = icmp eq ptr %1, null
  br i1 %.not.i, label %_ZN4llvm9StringRefC2EPKc.exit, label %6

6:                                                ; preds = %3
  %7 = tail call noundef i64 @strlen(ptr noundef nonnull dereferenceable(1) %1) #20
  br label %_ZN4llvm9StringRefC2EPKc.exit

_ZN4llvm9StringRefC2EPKc.exit:                    ; preds = %3, %6
  %8 = phi i64 [ %7, %6 ], [ 0, %3 ]
  call void @_ZN4llvm30DiagnosticInfoOptimizationBase8ArgumentC1ENS_9StringRefEj(ptr noundef nonnull align 8 dereferenceable(80) %5, ptr %1, i64 %8, i32 noundef %2) #20
  call void @llvm.lifetime.start.p0(i64 80, ptr nonnull %4)
  call void @_ZNSt7__cxx1112basic_stringIcSt11char_traitsIcESaIcEEC1ERKS4_(ptr noundef nonnull align 8 dereferenceable(80) %4, ptr noundef nonnull align 8 dereferenceable(80) %5) #20
  %9 = getelementptr inbounds nuw i8, ptr %4, i64 32
  %10 = getelementptr inbounds nuw i8, ptr %5, i64 32
  call void @_ZNSt7__cxx1112basic_stringIcSt11char_traitsIcESaIcEEC1ERKS4_(ptr noundef nonnull align 8 dereferenceable(32) %9, ptr noundef nonnull align 8 dereferenceable(32) %10) #20
  %11 = getelementptr inbounds nuw i8, ptr %4, i64 64
  %12 = getelementptr inbounds nuw i8, ptr %5, i64 64
  call void @llvm.memcpy.p0.p0.i64(ptr noundef nonnull align 8 dereferenceable(16) %11, ptr noundef nonnull align 8 dereferenceable(16) %12, i64 16, i1 false)
  call void @_ZN4llvm30DiagnosticInfoOptimizationBase6insertENS0_8ArgumentE(ptr noundef nonnull align 8 dereferenceable(432) %0, ptr noundef nonnull %4) #20
  call void @_ZNSt7__cxx1112basic_stringIcSt11char_traitsIcESaIcEED1Ev(ptr noundef nonnull align 8 dereferenceable(32) %9) #20
  call void @_ZNSt7__cxx1112basic_stringIcSt11char_traitsIcESaIcEED1Ev(ptr noundef nonnull align 8 dereferenceable(80) %4) #20
  call void @llvm.lifetime.end.p0(i64 80, ptr nonnull %4)
  %13 = icmp eq i32 %2, 1
  %14 = select i1 %13, ptr @.str.29, ptr @.str.30
  %15 = select i1 %13, i64 6, i64 7
  call void @_ZN4llvm30DiagnosticInfoOptimizationBase6insertENS_9StringRefE(ptr noundef nonnull align 8 dereferenceable(432) %0, ptr nonnull %14, i64 %15) #20
  call void @_ZNSt7__cxx1112basic_stringIcSt11char_traitsIcESaIcEED1Ev(ptr noundef nonnull align 8 dereferenceable(32) %10) #20
  call void @_ZNSt7__cxx1112basic_stringIcSt11char_traitsIcESaIcEED1Ev(ptr noundef nonnull align 8 dereferenceable(80) %5) #20
  ret ptr %0
}